target datalayout = "e-m:e-p270:32:32-p271:32:32-p272:64:64-i64:64-i128:128-f80:128-n8:16:32:64-S128"
target triple = "x86_64-pc-linux-gnu"

%struct.FunctionCallInfoBaseData = type { ptr, ptr, ptr, i32, i8, i16, [0 x %struct.NullableDatum] }
%struct.NullableDatum = type { i64, i8 }
%struct.LocalPgBackendStatus = type { %struct.PgBackendStatus, i32, i32, i32, i32, i8 }
%struct.PgBackendStatus = type { i32, i32, i32, i64, i64, i64, i64, i32, i32, %struct.SockAddr, ptr, i8, ptr, i8, ptr, i32, ptr, ptr, i32, i32, [20 x i64], i64 }
%struct.SockAddr = type { %struct.sockaddr_storage, i32 }
%struct.sockaddr_storage = type { i16, [118 x i8], i64 }
%struct.HeapTupleData = type { i32, %struct.ItemPointerData, i32, ptr }
%struct.ItemPointerData = type { %struct.BlockIdData, i16 }
%struct.BlockIdData = type { i16, i16 }

@.str.15 = private unnamed_addr constant [14 x i8] c"subxact_count\00", align 1
@.str.16 = private unnamed_addr constant [17 x i8] c"subxact_overflow\00", align 1

; Function Attrs: inlinehint nounwind uwtable
define internal i64 @HeapTupleGetDatum(ptr noundef %0) #2 {
  %2 = alloca ptr, align 8
  store ptr %0, ptr %2, align 8
  %3 = load ptr, ptr %2, align 8
  %4 = getelementptr inbounds nuw %struct.HeapTupleData, ptr %3, i32 0, i32 3
  %5 = load ptr, ptr %4, align 8
  %6 = call i64 @HeapTupleHeaderGetDatum(ptr noundef %5)
  ret i64 %6
}

; Function Attrs: inlinehint nounwind uwtable
define internal i64 @BoolGetDatum(i1 noundef zeroext %0) #2 {
  %2 = alloca i8, align 1
  %3 = zext i1 %0 to i8
  store i8 %3, ptr %2, align 1
  %4 = load i8, ptr %2, align 1, !range !8, !noundef !9
  %5 = trunc i8 %4 to i1
  %6 = select i1 %5, i32 1, i32 0
  %7 = sext i32 %6 to i64
  ret i64 %7
}

; Function Attrs: inlinehint nounwind uwtable
define internal i64 @Int32GetDatum(i32 noundef %0) #2 {
  %2 = alloca i32, align 4
  store i32 %0, ptr %2, align 4
  %3 = load i32, ptr %2, align 4
  %4 = sext i32 %3 to i64
  ret i64 %4
}

; Function Attrs: inlinehint nounwind uwtable
define internal i32 @DatumGetInt32(i64 noundef %0) #2 {
  %2 = alloca i64, align 8
  store i64 %0, ptr %2, align 8
  %3 = load i64, ptr %2, align 8
  %4 = trunc i64 %3 to i32
  ret i32 %4
}

; Function Attrs: nounwind uwtable
define dso_local i64 @pg_stat_get_backend_subxact(ptr noundef %0) #0 {
  %2 = alloca ptr, align 8
  %3 = alloca ptr, align 8
  %4 = alloca [2 x i64], align 16
  %5 = alloca [2 x i8], align 1
  %6 = alloca i32, align 4
  %7 = alloca ptr, align 8
  store ptr %0, ptr %2, align 8
  call void @llvm.lifetime.start.p0(i64 8, ptr %3) #10
  call void @llvm.lifetime.start.p0(i64 16, ptr %4) #10
  call void @llvm.memset.p0.i64(ptr align 16 %4, i8 0, i64 16, i1 false)
  call void @llvm.lifetime.start.p0(i64 2, ptr %5) #10
  call void @llvm.memset.p0.i64(ptr align 1 %5, i8 0, i64 2, i1 false)
  call void @llvm.lifetime.start.p0(i64 4, ptr %6) #10
  %8 = load ptr, ptr %2, align 8
  %9 = getelementptr inbounds nuw %struct.FunctionCallInfoBaseData, ptr %8, i32 0, i32 6
  %10 = getelementptr inbounds [0 x %struct.NullableDatum], ptr %9, i64 0, i64 0
  %11 = getelementptr inbounds nuw %struct.NullableDatum, ptr %10, i32 0, i32 0
  %12 = load i64, ptr %11, align 8
  %13 = call i32 @DatumGetInt32(i64 noundef %12)
  store i32 %13, ptr %6, align 4
  call void @llvm.lifetime.start.p0(i64 8, ptr %7) #10
  %14 = call ptr @CreateTemplateTupleDesc(i32 noundef 2)
  store ptr %14, ptr %3, align 8
  %15 = load ptr, ptr %3, align 8
  call void @TupleDescInitEntry(ptr noundef %15, i16 noundef signext 1, ptr noundef @.str.15, i32 noundef 23, i32 noundef -1, i32 noundef 0)
  %16 = load ptr, ptr %3, align 8
  call void @TupleDescInitEntry(ptr noundef %16, i16 noundef signext 2, ptr noundef @.str.16, i32 noundef 16, i32 noundef -1, i32 noundef 0)
  %17 = load ptr, ptr %3, align 8
  %18 = call ptr @BlessTupleDesc(ptr noundef %17)
  %19 = load i32, ptr %6, align 4
  %20 = call ptr @pgstat_get_local_beentry_by_proc_number(i32 noundef %19)
  store ptr %20, ptr %7, align 8
  %21 = icmp ne ptr %20, null
  br i1 %21, label %22, label %34

22:                                               ; preds = %1
  %23 = load ptr, ptr %7, align 8
  %24 = getelementptr inbounds nuw %struct.LocalPgBackendStatus, ptr %23, i32 0, i32 4
  %25 = load i32, ptr %24, align 4
  %26 = call i64 @Int32GetDatum(i32 noundef %25)
  %27 = getelementptr inbounds [2 x i64], ptr %4, i64 0, i64 0
  store i64 %26, ptr %27, align 16
  %28 = load ptr, ptr %7, align 8
  %29 = getelementptr inbounds nuw %struct.LocalPgBackendStatus, ptr %28, i32 0, i32 5
  %30 = load i8, ptr %29, align 8, !range !8, !noundef !9
  %31 = trunc i8 %30 to i1
  %32 = call i64 @BoolGetDatum(i1 noundef zeroext %31)
  %33 = getelementptr inbounds [2 x i64], ptr %4, i64 0, i64 1
  store i64 %32, ptr %33, align 8
  br label %37

34:                                               ; preds = %1
  %35 = getelementptr inbounds [2 x i8], ptr %5, i64 0, i64 0
  store i8 1, ptr %35, align 1
  %36 = getelementptr inbounds [2 x i8], ptr %5, i64 0, i64 1
  store i8 1, ptr %36, align 1
  br label %37

37:                                               ; preds = %34, %22
  %38 = load ptr, ptr %3, align 8
  %39 = getelementptr inbounds [2 x i64], ptr %4, i64 0, i64 0
  %40 = getelementptr inbounds [2 x i8], ptr %5, i64 0, i64 0
  %41 = call ptr @heap_form_tuple(ptr noundef %38, ptr noundef %39, ptr noundef %40)
  %42 = call i64 @HeapTupleGetDatum(ptr noundef %41)
  call void @llvm.lifetime.end.p0(i64 8, ptr %7) #10
  call void @llvm.lifetime.end.p0(i64 4, ptr %6) #10
  call void @llvm.lifetime.end.p0(i64 2, ptr %5) #10
  call void @llvm.lifetime.end.p0(i64 16, ptr %4) #10
  call void @llvm.lifetime.end.p0(i64 8, ptr %3) #10
  ret i64 %42
}