; Function Attrs: nounwind uwtable
define dso_local i64 @pg_stat_get_backend_subxact(ptr noundef readonly captures(none) %0) local_unnamed_addr #0 {
  %2 = alloca [2 x i64], align 16
  %3 = alloca [2 x i8], align 2
  call void @llvm.lifetime.start.p0(i64 16, ptr nonnull %2) #9
  call void @llvm.memset.p0.i64(ptr noundef nonnull align 16 dereferenceable(16) %2, i8 0, i64 16, i1 false)
  call void @llvm.lifetime.start.p0(i64 2, ptr nonnull %3) #9
  store i16 0, ptr %3, align 2
  %4 = getelementptr inbounds nuw i8, ptr %0, i64 32
  %5 = load i64, ptr %4, align 8
  %6 = trunc i64 %5 to i32
  %7 = tail call ptr @CreateTemplateTupleDesc(i32 noundef 2) #9
  tail call void @TupleDescInitEntry(ptr noundef %7, i16 noundef signext 1, ptr noundef nonnull @.str.15, i32 noundef 23, i32 noundef -1, i32 noundef 0) #9
  tail call void @TupleDescInitEntry(ptr noundef %7, i16 noundef signext 2, ptr noundef nonnull @.str.16, i32 noundef 16, i32 noundef -1, i32 noundef 0) #9
  %8 = tail call ptr @BlessTupleDesc(ptr noundef %7) #9
  %9 = tail call ptr @pgstat_get_local_beentry_by_proc_number(i32 noundef %6) #9
  %.not = icmp eq ptr %9, null
  br i1 %.not, label %18, label %10

10:                                               ; preds = %1
  %11 = getelementptr inbounds nuw i8, ptr %9, i64 444
  %12 = load i32, ptr %11, align 4
  %13 = sext i32 %12 to i64
  store i64 %13, ptr %2, align 16
  %14 = getelementptr inbounds nuw i8, ptr %9, i64 448
  %15 = load i8, ptr %14, align 8, !range !7, !noundef !8
  %16 = zext nneg i8 %15 to i64
  %17 = getelementptr inbounds nuw i8, ptr %2, i64 8
  store i64 %16, ptr %17, align 8
  br label %20

18:                                               ; preds = %1
  store i8 1, ptr %3, align 2
  %19 = getelementptr inbounds nuw i8, ptr %3, i64 1
  store i8 1, ptr %19, align 1
  br label %20

20:                                               ; preds = %18, %10
  %21 = call ptr @heap_form_tuple(ptr noundef %7, ptr noundef nonnull %2, ptr noundef nonnull %3) #9
  %22 = getelementptr i8, ptr %21, i64 16
  %.val = load ptr, ptr %22, align 8
  %23 = call i64 @HeapTupleHeaderGetDatum(ptr noundef %.val) #9
  call void @llvm.lifetime.end.p0(i64 2, ptr nonnull %3) #9
  call void @llvm.lifetime.end.p0(i64 16, ptr nonnull %2) #9
  ret i64 %23
}